; Function Attrs: inlinehint mustprogress optsize uwtable
define internal noundef ptr @"_ZZN8nanobind6detail11func_createILb0ELb1EZL30nanobind_init_test_holders_extRNS_7module_EE4$_33St10shared_ptrIZL30nanobind_init_test_holders_extS3_E15PolymorphicBaseEJETpTnmJEJNS_5scopeENS_4nameEEEEP7_objectOT1_PFT2_DpT3_ESt16integer_sequenceImJXspT4_EEEDpRKT5_ENUlPvPSB_PhNS_9rv_policyEPNS0_12cleanup_listEE_8__invokeESP_SQ_SR_SS_SU_"(ptr readnone captures(none) %0, ptr readnone captures(none) %1, ptr readnone captures(none) %2, i32 %3, ptr noundef %4) #8 align 2 personality ptr @__gxx_personality_v0 {
  %6 = alloca %"class.std::shared_ptr.476", align 8
  call void @llvm.lifetime.start.p0(i64 16, ptr nonnull %6) #26
  tail call void @llvm.experimental.noalias.scope.decl(metadata !393)
  %7 = tail call noalias noundef nonnull dereferenceable(8) ptr @_Znwm(i64 noundef 8) #29, !noalias !393
  store ptr getelementptr inbounds nuw inrange(-16, 16) (i8, ptr @_ZTVZL30nanobind_init_test_holders_extRN8nanobind7module_EE19PolymorphicSubclass, i64 16), ptr %7, align 8, !tbaa !116, !noalias !393
  store ptr %7, ptr %6, align 8, !tbaa !396, !alias.scope !393
  %8 = invoke noalias noundef nonnull dereferenceable(24) ptr @_Znwm(i64 noundef 24) #29
          to label %"_ZZL30nanobind_init_test_holders_extRN8nanobind7module_EENK4$_33clEv.exit" unwind label %9, !noalias !393

9:                                                ; preds = %5
  %10 = landingpad { ptr, i32 }
          catch ptr null
  %11 = extractvalue { ptr, i32 } %10, 0
  %12 = tail call ptr @__cxa_begin_catch(ptr %11) #26, !noalias !393
  %13 = load ptr, ptr %7, align 8, !tbaa !116, !noalias !393
  %14 = getelementptr inbounds nuw i8, ptr %13, i64 8
  %15 = load ptr, ptr %14, align 8, !noalias !393
  tail call void %15(ptr noundef nonnull align 8 dereferenceable(8) %7) #27, !noalias !393
  invoke void @__cxa_rethrow() #31
          to label %22 unwind label %16, !noalias !393

16:                                               ; preds = %9
  %17 = landingpad { ptr, i32 }
          cleanup
  invoke void @__cxa_end_catch()
          to label %18 unwind label %19, !noalias !393

18:                                               ; preds = %16
  resume { ptr, i32 } %17

19:                                               ; preds = %16
  %20 = landingpad { ptr, i32 }
          catch ptr null
  %21 = extractvalue { ptr, i32 } %20, 0
  tail call void @__clang_call_terminate(ptr %21) #28, !noalias !393
  unreachable

22:                                               ; preds = %9
  unreachable

"_ZZL30nanobind_init_test_holders_extRN8nanobind7module_EENK4$_33clEv.exit": ; preds = %5
  %23 = getelementptr inbounds nuw i8, ptr %6, i64 8
  %24 = getelementptr inbounds nuw i8, ptr %8, i64 8
  store i32 1, ptr %24, align 8, !tbaa !123, !noalias !393
  %25 = getelementptr inbounds nuw i8, ptr %8, i64 12
  store i32 1, ptr %25, align 4, !tbaa !125, !noalias !393
  store ptr getelementptr inbounds nuw inrange(-16, 40) (i8, ptr @_ZTVSt15_Sp_counted_ptrIPZL30nanobind_init_test_holders_extRN8nanobind7module_EE19PolymorphicSubclassLN9__gnu_cxx12_Lock_policyE2EE, i64 16), ptr %8, align 8, !tbaa !116, !noalias !393
  %26 = getelementptr inbounds nuw i8, ptr %8, i64 16
  store ptr %7, ptr %26, align 8, !tbaa !398, !noalias !393
  store ptr %8, ptr %23, align 8, !tbaa !126, !alias.scope !393
  %27 = call fastcc ptr @_ZN8nanobind6detail11type_casterISt10shared_ptrIZL30nanobind_init_test_holders_extRNS_7module_EE15PolymorphicBaseEiE8from_cppERKS6_NS_9rv_policyEPNS0_12cleanup_listE(ptr noundef nonnull align 8 dereferenceable(16) %6, ptr noundef %4) #27
  call void @_ZNSt14__shared_countILN9__gnu_cxx12_Lock_policyE2EED2Ev(ptr noundef nonnull align 8 dereferenceable(8) %23) #27
  call void @llvm.lifetime.end.p0(i64 16, ptr nonnull %6) #26
  ret ptr %27
}